; Function Attrs: nofree norecurse nosync nounwind memory(readwrite, inaccessiblemem: none) uwtable
define internal fastcc range(i32 0, 2) i32 @get_selector_style_prop(ptr noundef nonnull readonly captures(none) %0, i32 noundef %1, i8 noundef zeroext %2, ptr noundef nonnull writeonly captures(none) %3) unnamed_addr #5 {
  %5 = and i32 %1, 16711680
  %6 = tail call fastcc i32 @get_prop_core(ptr noundef %0, i32 noundef %1, i8 noundef zeroext %2, ptr noundef %3)
  %.not54 = icmp eq i32 %6, 0
  br i1 %.not54, label %7, label %.critedge

7:                                                ; preds = %4
  %8 = icmp ult i8 %2, -115
  br i1 %8, label %9, label %12

9:                                                ; preds = %7
  %10 = zext i8 %2 to i64
  %11 = getelementptr inbounds nuw [0 x i8], ptr @lv_style_builtin_prop_flag_lookup_table, i64 0, i64 %10
  br label %18

12:                                               ; preds = %7
  %13 = load ptr, ptr getelementptr inbounds nuw (i8, ptr @lv_global, i64 88), align 8, !tbaa !3
  %.not = icmp eq ptr %13, null
  br i1 %.not, label %.thread, label %14

14:                                               ; preds = %12
  %15 = zext i8 %2 to i64
  %16 = getelementptr i8, ptr %13, i64 %15
  %17 = getelementptr i8, ptr %16, i64 -141
  br label %18

18:                                               ; preds = %14, %9
  %.037.in.in = phi ptr [ %11, %9 ], [ %17, %14 ]
  %.037.in = load i8, ptr %.037.in.in, align 1, !tbaa !37
  %19 = trunc i8 %.037.in to i1
  br i1 %19, label %20, label %.thread

20:                                               ; preds = %18
  %.not51 = icmp eq i32 %5, 0
  br i1 %.not51, label %21, label %.lr.ph63.preheader

21:                                               ; preds = %20
  %22 = getelementptr inbounds nuw i8, ptr %0, i64 8
  %23 = load ptr, ptr %22, align 8, !tbaa !63
  %.not5261 = icmp eq ptr %23, null
  br i1 %.not5261, label %.critedge, label %.lr.ph63.preheader

.lr.ph63.preheader:                               ; preds = %20, %21
  %.14262.ph = phi ptr [ %0, %20 ], [ %23, %21 ]
  br label %.lr.ph63

.lr.ph63:                                         ; preds = %.lr.ph63.preheader, %28
  %.14262 = phi ptr [ %30, %28 ], [ %.14262.ph, %.lr.ph63.preheader ]
  %24 = getelementptr inbounds nuw i8, ptr %.14262, i64 60
  %25 = load i16, ptr %24, align 4, !tbaa !62
  %26 = zext i16 %25 to i32
  %27 = tail call fastcc i32 @get_prop_core(ptr noundef %.14262, i32 noundef %26, i8 noundef zeroext %2, ptr noundef %3)
  %.not55 = icmp eq i32 %27, 0
  br i1 %.not55, label %28, label %.critedge

28:                                               ; preds = %.lr.ph63
  %29 = getelementptr inbounds nuw i8, ptr %.14262, i64 8
  %30 = load ptr, ptr %29, align 8, !tbaa !63
  %.not52 = icmp eq ptr %30, null
  br i1 %.not52, label %.critedge, label %.lr.ph63, !llvm.loop !64

.thread:                                          ; preds = %12, %18
  %31 = icmp eq i32 %5, 0
  br i1 %31, label %32, label %.critedge

32:                                               ; preds = %.thread
  %33 = icmp eq i8 %2, 1
  %34 = add i8 %2, -1
  %or.cond = icmp ult i8 %34, 2
  br i1 %or.cond, label %.preheader, label %.critedge

.preheader:                                       ; preds = %32
  %.058 = load ptr, ptr %0, align 8, !tbaa !65
  %.not4859 = icmp eq ptr %.058, null
  br i1 %.not4859, label %.critedge, label %.lr.ph

.lr.ph:                                           ; preds = %.preheader
  br i1 %33, label %.lr.ph.split.us, label %.lr.ph.split

.lr.ph.split.us:                                  ; preds = %.lr.ph, %37
  %.060.us = phi ptr [ %.0.us, %37 ], [ %.058, %.lr.ph ]
  %35 = getelementptr inbounds nuw i8, ptr %.060.us, i64 48
  %36 = load i32, ptr %35, align 8, !tbaa !69
  %.not50.us = icmp eq i32 %36, 0
  br i1 %.not50.us, label %37, label %.critedge.sink.split

37:                                               ; preds = %.lr.ph.split.us
  %.0.us = load ptr, ptr %.060.us, align 8, !tbaa !65
  %.not48.us = icmp eq ptr %.0.us, null
  br i1 %.not48.us, label %.critedge, label %.lr.ph.split.us, !llvm.loop !68

.lr.ph.split:                                     ; preds = %.lr.ph, %40
  %.060 = phi ptr [ %.0, %40 ], [ %.058, %.lr.ph ]
  %38 = getelementptr inbounds nuw i8, ptr %.060, i64 52
  %39 = load i32, ptr %38, align 4, !tbaa !66
  %.not49 = icmp eq i32 %39, 0
  br i1 %.not49, label %40, label %.critedge.sink.split

40:                                               ; preds = %.lr.ph.split
  %.0 = load ptr, ptr %.060, align 8, !tbaa !65
  %.not48 = icmp eq ptr %.0, null
  br i1 %.not48, label %.critedge, label %.lr.ph.split, !llvm.loop !68

.critedge.sink.split:                             ; preds = %.lr.ph.split, %.lr.ph.split.us
  %.lcssa.sink = phi i32 [ %36, %.lr.ph.split.us ], [ %39, %.lr.ph.split ]
  store i32 %.lcssa.sink, ptr %3, align 8, !tbaa !37
  br label %.critedge

.critedge:                                        ; preds = %40, %37, %.lr.ph63, %28, %.critedge.sink.split, %.preheader, %21, %32, %.thread, %4
  %.040 = phi i32 [ 1, %4 ], [ 0, %.thread ], [ 0, %32 ], [ 0, %21 ], [ 0, %.preheader ], [ 1, %.critedge.sink.split ], [ 1, %.lr.ph63 ], [ 0, %28 ], [ 0, %37 ], [ 0, %40 ]
  ret i32 %.040
}